; Function Attrs: nounwind uwtable
define range(i32 0, 2) i32 @dt_bauhaus_combobox_set_entry_label(ptr noundef %0, i32 noundef %1, ptr noundef %2) local_unnamed_addr #0 {
  %4 = load atomic i64, ptr @dt_bh_get_type.static_g_define_type_id seq_cst, align 8
  %.not.i.i = icmp eq i64 %4, 0
  br i1 %.not.i.i, label %5, label %DT_BAUHAUS_WIDGET.exit

5:                                                ; preds = %3
  %6 = tail call i32 @g_once_init_enter(ptr noundef nonnull @dt_bh_get_type.static_g_define_type_id) #19
  %.not4.i.i = icmp eq i32 %6, 0
  br i1 %.not4.i.i, label %DT_BAUHAUS_WIDGET.exit, label %7

7:                                                ; preds = %5
  %8 = tail call fastcc i64 @dt_bh_get_type_once()
  tail call void @g_once_init_leave(ptr noundef nonnull @dt_bh_get_type.static_g_define_type_id, i64 noundef %8) #19
  br label %DT_BAUHAUS_WIDGET.exit

DT_BAUHAUS_WIDGET.exit:                           ; preds = %3, %5, %7
  %9 = load i64, ptr @dt_bh_get_type.static_g_define_type_id, align 8, !tbaa !6
  %10 = tail call ptr @g_type_check_instance_cast(ptr noundef %0, i64 noundef %9) #19
  %11 = getelementptr inbounds nuw i8, ptr %10, i64 40
  %12 = load i32, ptr %11, align 8, !tbaa !105
  %.not = icmp ne i32 %12, 2
  %13 = icmp slt i32 %1, 0
  %or.cond = or i1 %13, %.not
  br i1 %or.cond, label %25, label %14

14:                                               ; preds = %DT_BAUHAUS_WIDGET.exit
  %15 = getelementptr i8, ptr %10, i64 440
  %16 = load ptr, ptr %15, align 8, !tbaa !128
  %17 = getelementptr inbounds nuw i8, ptr %16, i64 8
  %18 = load i32, ptr %17, align 8, !tbaa !131
  %.not14 = icmp ult i32 %1, %18
  br i1 %.not14, label %19, label %25

19:                                               ; preds = %14
  %.val.val = load ptr, ptr %16, align 8, !tbaa !133
  %20 = zext nneg i32 %1 to i64
  %21 = getelementptr inbounds nuw ptr, ptr %.val.val, i64 %20
  %22 = load ptr, ptr %21, align 8, !tbaa !134
  %23 = load ptr, ptr %22, align 8, !tbaa !149
  tail call void @g_free(ptr noundef %23) #19
  %24 = tail call noalias ptr @g_strdup(ptr noundef %2) #19
  store ptr %24, ptr %22, align 8, !tbaa !149
  br label %25

25:                                               ; preds = %19, %14, %DT_BAUHAUS_WIDGET.exit
  %.0 = phi i32 [ 0, %DT_BAUHAUS_WIDGET.exit ], [ 1, %19 ], [ 0, %14 ]
  ret i32 %.0
}